target datalayout = "e-m:e-p270:32:32-p271:32:32-p272:64:64-i64:64-i128:128-f80:128-n8:16:32:64-S128"
target triple = "x86_64-pc-linux-gnu"

; Function Attrs: nounwind uwtable
define i32 @pg_b64_decode(ptr noundef %0, i32 noundef %1, ptr noundef %2, i32 noundef %3) #0 {
  %5 = alloca i32, align 4
  %6 = alloca ptr, align 8
  %7 = alloca i32, align 4
  %8 = alloca ptr, align 8
  %9 = alloca i32, align 4
  %10 = alloca ptr, align 8
  %11 = alloca ptr, align 8
  %12 = alloca ptr, align 8
  %13 = alloca i8, align 1
  %14 = alloca i32, align 4
  %15 = alloca i32, align 4
  %16 = alloca i32, align 4
  %17 = alloca i32, align 4
  %18 = alloca i32, align 4
  store ptr %0, ptr %6, align 8
  store i32 %1, ptr %7, align 4
  store ptr %2, ptr %8, align 8
  store i32 %3, ptr %9, align 4
  call void @llvm.lifetime.start.p0(i64 8, ptr %10) #3
  %19 = load ptr, ptr %6, align 8
  %20 = load i32, ptr %7, align 4
  %21 = sext i32 %20 to i64
  %22 = getelementptr inbounds i8, ptr %19, i64 %21
  store ptr %22, ptr %10, align 8
  call void @llvm.lifetime.start.p0(i64 8, ptr %11) #3
  %23 = load ptr, ptr %6, align 8
  store ptr %23, ptr %11, align 8
  call void @llvm.lifetime.start.p0(i64 8, ptr %12) #3
  %24 = load ptr, ptr %8, align 8
  store ptr %24, ptr %12, align 8
  call void @llvm.lifetime.start.p0(i64 1, ptr %13) #3
  call void @llvm.lifetime.start.p0(i64 4, ptr %14) #3
  store i32 0, ptr %14, align 4
  call void @llvm.lifetime.start.p0(i64 4, ptr %15) #3
  store i32 0, ptr %15, align 4
  call void @llvm.lifetime.start.p0(i64 4, ptr %16) #3
  store i32 0, ptr %16, align 4
  call void @llvm.lifetime.start.p0(i64 4, ptr %17) #3
  store i32 0, ptr %17, align 4
  br label %25

25:                                               ; preds = %161, %4
  %26 = load ptr, ptr %11, align 8
  %27 = load ptr, ptr %10, align 8
  %28 = icmp ult ptr %26, %27
  br i1 %28, label %29, label %162

29:                                               ; preds = %25
  %30 = load ptr, ptr %11, align 8
  %31 = getelementptr inbounds nuw i8, ptr %30, i32 1
  store ptr %31, ptr %11, align 8
  %32 = load i8, ptr %30, align 1
  store i8 %32, ptr %13, align 1
  %33 = load i8, ptr %13, align 1
  %34 = sext i8 %33 to i32
  %35 = icmp eq i32 %34, 32
  br i1 %35, label %48, label %36

36:                                               ; preds = %29
  %37 = load i8, ptr %13, align 1
  %38 = sext i8 %37 to i32
  %39 = icmp eq i32 %38, 9
  br i1 %39, label %48, label %40

40:                                               ; preds = %36
  %41 = load i8, ptr %13, align 1
  %42 = sext i8 %41 to i32
  %43 = icmp eq i32 %42, 10
  br i1 %43, label %48, label %44

44:                                               ; preds = %40
  %45 = load i8, ptr %13, align 1
  %46 = sext i8 %45 to i32
  %47 = icmp eq i32 %46, 13
  br i1 %47, label %48, label %49

48:                                               ; preds = %44, %40, %36, %29
  br label %173

49:                                               ; preds = %44
  %50 = load i8, ptr %13, align 1
  %51 = sext i8 %50 to i32
  %52 = icmp eq i32 %51, 61
  br i1 %52, label %53, label %68

53:                                               ; preds = %49
  %54 = load i32, ptr %17, align 4
  %55 = icmp ne i32 %54, 0
  br i1 %55, label %67, label %56

56:                                               ; preds = %53
  %57 = load i32, ptr %16, align 4
  %58 = icmp eq i32 %57, 2
  br i1 %58, label %59, label %60

59:                                               ; preds = %56
  store i32 1, ptr %17, align 4
  br label %66

60:                                               ; preds = %56
  %61 = load i32, ptr %16, align 4
  %62 = icmp eq i32 %61, 3
  br i1 %62, label %63, label %64

63:                                               ; preds = %60
  store i32 2, ptr %17, align 4
  br label %65

64:                                               ; preds = %60
  br label %173

65:                                               ; preds = %63
  br label %66

66:                                               ; preds = %65, %59
  br label %67

67:                                               ; preds = %66, %53
  store i32 0, ptr %14, align 4
  br label %87

68:                                               ; preds = %49
  store i32 -1, ptr %14, align 4
  %69 = load i8, ptr %13, align 1
  %70 = sext i8 %69 to i32
  %71 = icmp sgt i32 %70, 0
  br i1 %71, label %72, label %82

72:                                               ; preds = %68
  %73 = load i8, ptr %13, align 1
  %74 = sext i8 %73 to i32
  %75 = icmp slt i32 %74, 127
  br i1 %75, label %76, label %82

76:                                               ; preds = %72
  %77 = load i8, ptr %13, align 1
  %78 = zext i8 %77 to i64
  %79 = getelementptr inbounds nuw [128 x i8], ptr @b64lookup, i64 0, i64 %78
  %80 = load i8, ptr %79, align 1
  %81 = sext i8 %80 to i32
  store i32 %81, ptr %14, align 4
  br label %82

82:                                               ; preds = %76, %72, %68
  %83 = load i32, ptr %14, align 4
  %84 = icmp slt i32 %83, 0
  br i1 %84, label %85, label %86

85:                                               ; preds = %82
  br label %173

86:                                               ; preds = %82
  br label %87

87:                                               ; preds = %86, %67
  %88 = load i32, ptr %15, align 4
  %89 = shl i32 %88, 6
  %90 = load i32, ptr %14, align 4
  %91 = add i32 %89, %90
  store i32 %91, ptr %15, align 4
  %92 = load i32, ptr %16, align 4
  %93 = add i32 %92, 1
  store i32 %93, ptr %16, align 4
  %94 = load i32, ptr %16, align 4
  %95 = icmp eq i32 %94, 4
  br i1 %95, label %96, label %161

96:                                               ; preds = %87
  %97 = load ptr, ptr %12, align 8
  %98 = load ptr, ptr %8, align 8
  %99 = ptrtoint ptr %97 to i64
  %100 = ptrtoint ptr %98 to i64
  %101 = sub i64 %99, %100
  %102 = add i64 %101, 1
  %103 = load i32, ptr %9, align 4
  %104 = sext i32 %103 to i64
  %105 = icmp sgt i64 %102, %104
  br i1 %105, label %106, label %107

106:                                              ; preds = %96
  br label %173

107:                                              ; preds = %96
  %108 = load i32, ptr %15, align 4
  %109 = lshr i32 %108, 16
  %110 = and i32 %109, 255
  %111 = trunc i32 %110 to i8
  %112 = load ptr, ptr %12, align 8
  %113 = getelementptr inbounds nuw i8, ptr %112, i32 1
  store ptr %113, ptr %12, align 8
  store i8 %111, ptr %112, align 1
  %114 = load i32, ptr %17, align 4
  %115 = icmp eq i32 %114, 0
  br i1 %115, label %119, label %116

116:                                              ; preds = %107
  %117 = load i32, ptr %17, align 4
  %118 = icmp sgt i32 %117, 1
  br i1 %118, label %119, label %137

119:                                              ; preds = %116, %107
  %120 = load ptr, ptr %12, align 8
  %121 = load ptr, ptr %8, align 8
  %122 = ptrtoint ptr %120 to i64
  %123 = ptrtoint ptr %121 to i64
  %124 = sub i64 %122, %123
  %125 = add i64 %124, 1
  %126 = load i32, ptr %9, align 4
  %127 = sext i32 %126 to i64
  %128 = icmp sgt i64 %125, %127
  br i1 %128, label %129, label %130

129:                                              ; preds = %119
  br label %173

130:                                              ; preds = %119
  %131 = load i32, ptr %15, align 4
  %132 = lshr i32 %131, 8
  %133 = and i32 %132, 255
  %134 = trunc i32 %133 to i8
  %135 = load ptr, ptr %12, align 8
  %136 = getelementptr inbounds nuw i8, ptr %135, i32 1
  store ptr %136, ptr %12, align 8
  store i8 %134, ptr %135, align 1
  br label %137

137:                                              ; preds = %130, %116
  %138 = load i32, ptr %17, align 4
  %139 = icmp eq i32 %138, 0
  br i1 %139, label %143, label %140

140:                                              ; preds = %137
  %141 = load i32, ptr %17, align 4
  %142 = icmp sgt i32 %141, 2
  br i1 %142, label %143, label %160

143:                                              ; preds = %140, %137
  %144 = load ptr, ptr %12, align 8
  %145 = load ptr, ptr %8, align 8
  %146 = ptrtoint ptr %144 to i64
  %147 = ptrtoint ptr %145 to i64
  %148 = sub i64 %146, %147
  %149 = add i64 %148, 1
  %150 = load i32, ptr %9, align 4
  %151 = sext i32 %150 to i64
  %152 = icmp sgt i64 %149, %151
  br i1 %152, label %153, label %154

153:                                              ; preds = %143
  br label %173

154:                                              ; preds = %143
  %155 = load i32, ptr %15, align 4
  %156 = and i32 %155, 255
  %157 = trunc i32 %156 to i8
  %158 = load ptr, ptr %12, align 8
  %159 = getelementptr inbounds nuw i8, ptr %158, i32 1
  store ptr %159, ptr %12, align 8
  store i8 %157, ptr %158, align 1
  br label %160

160:                                              ; preds = %154, %140
  store i32 0, ptr %15, align 4
  store i32 0, ptr %16, align 4
  br label %161

161:                                              ; preds = %160, %87
  br label %25, !llvm.loop !5

162:                                              ; preds = %25
  %163 = load i32, ptr %16, align 4
  %164 = icmp ne i32 %163, 0
  br i1 %164, label %165, label %166

165:                                              ; preds = %162
  br label %173

166:                                              ; preds = %162
  %167 = load ptr, ptr %12, align 8
  %168 = load ptr, ptr %8, align 8
  %169 = ptrtoint ptr %167 to i64
  %170 = ptrtoint ptr %168 to i64
  %171 = sub i64 %169, %170
  %172 = trunc i64 %171 to i32
  store i32 %172, ptr %5, align 4
  store i32 1, ptr %18, align 4
  br label %177

173:                                              ; preds = %165, %153, %129, %106, %85, %64, %48
  %174 = load ptr, ptr %8, align 8
  %175 = load i32, ptr %9, align 4
  %176 = sext i32 %175 to i64
  call void @llvm.memset.p0.i64(ptr align 1 %174, i8 0, i64 %176, i1 false)
  store i32 -1, ptr %5, align 4
  store i32 1, ptr %18, align 4
  br label %177

177:                                              ; preds = %173, %166
  call void @llvm.lifetime.end.p0(i64 4, ptr %17) #3
  call void @llvm.lifetime.end.p0(i64 4, ptr %16) #3
  call void @llvm.lifetime.end.p0(i64 4, ptr %15) #3
  call void @llvm.lifetime.end.p0(i64 4, ptr %14) #3
  call void @llvm.lifetime.end.p0(i64 1, ptr %13) #3
  call void @llvm.lifetime.end.p0(i64 8, ptr %12) #3
  call void @llvm.lifetime.end.p0(i64 8, ptr %11) #3
  call void @llvm.lifetime.end.p0(i64 8, ptr %10) #3
  %178 = load i32, ptr %5, align 4
  ret i32 %178
}