; Function Attrs: nofree norecurse nosync nounwind memory(argmem: readwrite) uwtable
define i32 @pg_b64_decode(ptr noundef readonly captures(address) %0, i32 noundef %1, ptr noundef %2, i32 noundef %3) local_unnamed_addr #0 {
  %5 = sext i32 %1 to i64
  %6 = getelementptr inbounds i8, ptr %0, i64 %5
  %7 = icmp sgt i32 %1, 0
  br i1 %7, label %.lr.ph, label %._crit_edge.thread

.lr.ph:                                           ; preds = %4
  %8 = ptrtoint ptr %2 to i64
  %9 = sext i32 %3 to i64
  br label %.outer

.outer:                                           ; preds = %56, %.lr.ph
  %.092.ph = phi i32 [ %.282, %56 ], [ 0, %.lr.ph ]
  %.06291.ph = phi i32 [ %.163, %56 ], [ 0, %.lr.ph ]
  %.06490.ph = phi i32 [ %.165, %56 ], [ 0, %.lr.ph ]
  %.06989.ph = phi ptr [ %.170, %56 ], [ %2, %.lr.ph ]
  %.07288.ph = phi ptr [ %11, %56 ], [ %0, %.lr.ph ]
  br label %10

10:                                               ; preds = %.outer, %.thread99
  %.092 = phi i32 [ 1, %.thread99 ], [ %.092.ph, %.outer ]
  %.06291 = phi i32 [ 3, %.thread99 ], [ %.06291.ph, %.outer ]
  %.06490 = phi i32 [ %58, %.thread99 ], [ %.06490.ph, %.outer ]
  %.07288 = phi ptr [ %11, %.thread99 ], [ %.07288.ph, %.outer ]
  %11 = getelementptr inbounds nuw i8, ptr %.07288, i64 1
  %12 = load i8, ptr %.07288, align 1
  switch i8 %12, label %16 [
    i8 32, label %.thread
    i8 13, label %.thread
    i8 10, label %.thread
    i8 9, label %.thread
    i8 61, label %13
  ]

13:                                               ; preds = %10
  %.not76 = icmp eq i32 %.092, 0
  br i1 %.not76, label %14, label %.loopexit

14:                                               ; preds = %13
  switch i32 %.06291, label %.thread [
    i32 2, label %.thread99
    i32 3, label %.thread78
  ]

.thread78:                                        ; preds = %14
  %15 = shl i32 %.06490, 6
  br label %28

16:                                               ; preds = %10
  %17 = add i8 %12, -1
  %or.cond11 = icmp ult i8 %17, 126
  br i1 %or.cond11, label %18, label %.thread

18:                                               ; preds = %16
  %19 = zext nneg i8 %12 to i64
  %20 = getelementptr inbounds nuw [128 x i8], ptr @b64lookup, i64 0, i64 %19
  %21 = load i8, ptr %20, align 1
  %22 = zext nneg i8 %21 to i32
  %23 = icmp slt i8 %21, 0
  br i1 %23, label %.thread, label %.loopexit

.loopexit:                                        ; preds = %13, %18
  %.066 = phi i32 [ %22, %18 ], [ 0, %13 ]
  %24 = shl i32 %.06490, 6
  %25 = add i32 %.066, %24
  %26 = add i32 %.06291, 1
  %27 = icmp eq i32 %26, 4
  br i1 %27, label %28, label %56

28:                                               ; preds = %.thread78, %.loopexit
  %29 = phi i32 [ %15, %.thread78 ], [ %25, %.loopexit ]
  %.281 = phi i32 [ 2, %.thread78 ], [ %.092, %.loopexit ]
  %30 = ptrtoint ptr %.06989.ph to i64
  %reass.sub = sub i64 %30, %8
  %31 = add i64 %reass.sub, 1
  %32 = icmp sgt i64 %31, %9
  br i1 %32, label %.thread, label %33

33:                                               ; preds = %28
  %34 = lshr i32 %29, 16
  %35 = trunc i32 %34 to i8
  %36 = getelementptr inbounds nuw i8, ptr %.06989.ph, i64 1
  store i8 %35, ptr %.06989.ph, align 1
  %37 = icmp eq i32 %.281, 0
  %38 = icmp sgt i32 %.281, 1
  %or.cond13 = or i1 %37, %38
  br i1 %or.cond13, label %39, label %47

39:                                               ; preds = %33
  %40 = ptrtoint ptr %36 to i64
  %reass.sub94 = sub i64 %40, %8
  %41 = add i64 %reass.sub94, 1
  %42 = icmp sgt i64 %41, %9
  br i1 %42, label %.thread, label %43

43:                                               ; preds = %39
  %44 = lshr i32 %29, 8
  %45 = trunc i32 %44 to i8
  %46 = getelementptr inbounds nuw i8, ptr %.06989.ph, i64 2
  store i8 %45, ptr %36, align 1
  br label %47

47:                                               ; preds = %33, %43
  %.271 = phi ptr [ %46, %43 ], [ %36, %33 ]
  %48 = icmp sgt i32 %.281, 2
  %or.cond15 = or i1 %37, %48
  br i1 %or.cond15, label %49, label %56

49:                                               ; preds = %47
  %50 = ptrtoint ptr %.271 to i64
  %reass.sub95 = sub i64 %50, %8
  %51 = add i64 %reass.sub95, 1
  %52 = icmp sgt i64 %51, %9
  br i1 %52, label %.thread, label %53

53:                                               ; preds = %49
  %54 = trunc i32 %29 to i8
  %55 = getelementptr inbounds nuw i8, ptr %.271, i64 1
  store i8 %54, ptr %.271, align 1
  br label %56

56:                                               ; preds = %53, %47, %.loopexit
  %.282 = phi i32 [ %.092, %.loopexit ], [ %.281, %53 ], [ %.281, %47 ]
  %.170 = phi ptr [ %.06989.ph, %.loopexit ], [ %55, %53 ], [ %.271, %47 ]
  %.165 = phi i32 [ %25, %.loopexit ], [ 0, %53 ], [ 0, %47 ]
  %.163 = phi i32 [ %26, %.loopexit ], [ 0, %53 ], [ 0, %47 ]
  %57 = icmp ult ptr %11, %6
  br i1 %57, label %.outer, label %._crit_edge, !llvm.loop !5

.thread99:                                        ; preds = %14
  %58 = shl i32 %.06490, 6
  %59 = icmp ult ptr %11, %6
  br i1 %59, label %10, label %._crit_edge..thread_crit_edge, !llvm.loop !5

._crit_edge:                                      ; preds = %56
  %60 = icmp eq i32 %.163, 0
  br i1 %60, label %._crit_edge.thread, label %._crit_edge..thread_crit_edge

._crit_edge..thread_crit_edge:                    ; preds = %.thread99, %._crit_edge
  %.pre = sext i32 %3 to i64
  br label %.thread

._crit_edge.thread:                               ; preds = %4, %._crit_edge
  %.069.lcssa98 = phi ptr [ %.170, %._crit_edge ], [ %2, %4 ]
  %61 = ptrtoint ptr %.069.lcssa98 to i64
  %62 = ptrtoint ptr %2 to i64
  %63 = sub i64 %61, %62
  %64 = trunc i64 %63 to i32
  br label %65

.thread:                                          ; preds = %16, %49, %39, %28, %18, %14, %10, %10, %10, %10, %._crit_edge..thread_crit_edge
  %.pre-phi = phi i64 [ %.pre, %._crit_edge..thread_crit_edge ], [ %9, %10 ], [ %9, %10 ], [ %9, %10 ], [ %9, %10 ], [ %9, %14 ], [ %9, %18 ], [ %9, %28 ], [ %9, %39 ], [ %9, %49 ], [ %9, %16 ]
  tail call void @llvm.memset.p0.i64(ptr align 1 %2, i8 0, i64 %.pre-phi, i1 false)
  br label %65

65:                                               ; preds = %.thread, %._crit_edge.thread
  %.068 = phi i32 [ -1, %.thread ], [ %64, %._crit_edge.thread ]
  ret i32 %.068
}